; Function Attrs: mustprogress uwtable
define internal void @_ZL27run_cancel_in_call_combinerPvN4absl12lts_202308026StatusE(ptr noundef %arg, ptr nocapture noundef readonly %error) #3 personality ptr @__gxx_personality_v0 {
entry:
  %agg.tmp.i = alloca %"class.absl::lts_20230802::Status", align 8
  %agg.tmp = alloca %"class.absl::lts_20230802::Status", align 8
  %0 = load i64, ptr %error, align 8
  store i64 %0, ptr %agg.tmp, align 8
  %and.i.i.i = and i64 %0, 1
  %cmp.i.i.i = icmp eq i64 %and.i.i.i, 0
  br i1 %cmp.i.i.i, label %_ZN4absl12lts_202308026StatusC2ERKS1_.exit.thread, label %if.then.i.i.i

_ZN4absl12lts_202308026StatusC2ERKS1_.exit.thread: ; preds = %entry
  call void @llvm.lifetime.start.p0(i64 8, ptr nonnull %agg.tmp.i)
  %call_combiner.i6 = getelementptr inbounds i8, ptr %arg, i64 40
  %1 = load ptr, ptr %call_combiner.i6, align 8
  %original_closure.i7 = getelementptr inbounds i8, ptr %arg, i64 32
  %2 = load ptr, ptr %original_closure.i7, align 8
  store i64 %0, ptr %agg.tmp.i, align 8
  br label %_ZN4absl12lts_202308026StatusC2ERKS1_.exit.i

if.then.i.i.i:                                    ; preds = %entry
  %sub.i.i.i = add nsw i64 %0, -1
  %3 = inttoptr i64 %sub.i.i.i to ptr
  %4 = atomicrmw add ptr %3, i32 1 monotonic, align 4
  call void @llvm.lifetime.start.p0(i64 8, ptr nonnull %agg.tmp.i)
  %call_combiner.i = getelementptr inbounds i8, ptr %arg, i64 40
  %5 = load ptr, ptr %call_combiner.i, align 8
  %original_closure.i = getelementptr inbounds i8, ptr %arg, i64 32
  %6 = load ptr, ptr %original_closure.i, align 8
  store i64 %0, ptr %agg.tmp.i, align 8
  %sub.i.i.i.i = add nsw i64 %0, -1
  %7 = inttoptr i64 %sub.i.i.i.i to ptr
  %8 = atomicrmw add ptr %7, i32 1 monotonic, align 4
  br label %_ZN4absl12lts_202308026StatusC2ERKS1_.exit.i

_ZN4absl12lts_202308026StatusC2ERKS1_.exit.i:     ; preds = %_ZN4absl12lts_202308026StatusC2ERKS1_.exit.thread, %if.then.i.i.i
  %9 = phi ptr [ %2, %_ZN4absl12lts_202308026StatusC2ERKS1_.exit.thread ], [ %6, %if.then.i.i.i ]
  %10 = phi ptr [ %1, %_ZN4absl12lts_202308026StatusC2ERKS1_.exit.thread ], [ %5, %if.then.i.i.i ]
  %reason.i = getelementptr inbounds i8, ptr %arg, i64 48
  %11 = load ptr, ptr %reason.i, align 8
  invoke void @_ZN9grpc_core12CallCombiner5StartEP12grpc_closureN4absl12lts_202308026StatusEPKc(ptr noundef nonnull align 8 dereferenceable(96) %10, ptr noundef %9, ptr noundef nonnull %agg.tmp.i, ptr noundef %11)
          to label %invoke.cont.i unwind label %lpad.i

invoke.cont.i:                                    ; preds = %_ZN4absl12lts_202308026StatusC2ERKS1_.exit.i
  %12 = load i64, ptr %agg.tmp.i, align 8
  %and.i.i.i3.i = and i64 %12, 1
  %cmp.i.i.i4.i = icmp eq i64 %and.i.i.i3.i, 0
  br i1 %cmp.i.i.i4.i, label %invoke.cont, label %if.then.i.i5.i

if.then.i.i5.i:                                   ; preds = %invoke.cont.i
  invoke void @_ZN4absl12lts_202308026Status15UnrefNonInlinedEm(i64 noundef %12)
          to label %invoke.cont unwind label %terminate.lpad.i.i

terminate.lpad.i.i:                               ; preds = %if.then.i.i5.i
  %13 = landingpad { ptr, i32 }
          catch ptr null
  %14 = extractvalue { ptr, i32 } %13, 0
  call void @__clang_call_terminate(ptr %14) #24
  unreachable

lpad.i:                                           ; preds = %_ZN4absl12lts_202308026StatusC2ERKS1_.exit.i
  %15 = landingpad { ptr, i32 }
          cleanup
  call void @_ZN4absl12lts_202308026StatusD2Ev(ptr noundef nonnull align 8 dereferenceable(8) %agg.tmp.i) #23
  call void @_ZN4absl12lts_202308026StatusD2Ev(ptr noundef nonnull align 8 dereferenceable(8) %agg.tmp) #23
  resume { ptr, i32 } %15

invoke.cont:                                      ; preds = %if.then.i.i5.i, %invoke.cont.i
  call void @llvm.lifetime.end.p0(i64 8, ptr nonnull %agg.tmp.i)
  br i1 %cmp.i.i.i, label %_ZN4absl12lts_202308026StatusD2Ev.exit, label %if.then.i.i4

if.then.i.i4:                                     ; preds = %invoke.cont
  invoke void @_ZN4absl12lts_202308026Status15UnrefNonInlinedEm(i64 noundef %0)
          to label %_ZN4absl12lts_202308026StatusD2Ev.exit unwind label %terminate.lpad.i

terminate.lpad.i:                                 ; preds = %if.then.i.i4
  %16 = landingpad { ptr, i32 }
          catch ptr null
  %17 = extractvalue { ptr, i32 } %16, 0
  call void @__clang_call_terminate(ptr %17) #24
  unreachable

_ZN4absl12lts_202308026StatusD2Ev.exit:           ; preds = %invoke.cont, %if.then.i.i4
  call void @gpr_free(ptr noundef nonnull %arg)
  ret void
}